; Function Attrs: mustprogress nounwind uwtable
define dso_local void @_ZNK4llvm10AsmPrinter11emitLinkageEPKNS_11GlobalValueEPNS_8MCSymbolE(ptr nocapture noundef nonnull readonly align 8 dereferenceable(785) %0, ptr noundef %1, ptr noundef %2) unnamed_addr #0 align 2 {
  %4 = getelementptr inbounds nuw i8, ptr %1, i64 32
  %5 = load i32, ptr %4, align 8
  %6 = and i32 %5, 15
  switch i32 %6, label %36 [
    i32 10, label %7
    i32 2, label %7
    i32 3, label %7
    i32 4, label %7
    i32 5, label %7
    i32 0, label %34
    i32 8, label %42
    i32 7, label %42
  ]

7:                                                ; preds = %3, %3, %3, %3, %3
  %8 = getelementptr inbounds nuw i8, ptr %0, i64 64
  %9 = load ptr, ptr %8, align 8
  %10 = getelementptr inbounds nuw i8, ptr %9, i64 18
  %11 = load i8, ptr %10, align 2
  %12 = trunc i8 %11 to i1
  br i1 %12, label %13, label %24

13:                                               ; preds = %7
  %14 = getelementptr inbounds nuw i8, ptr %0, i64 80
  %15 = load ptr, ptr %14, align 8
  %16 = load ptr, ptr %15, align 8
  %17 = getelementptr inbounds i8, ptr %16, i64 296
  %18 = load ptr, ptr %17, align 8
  %19 = tail call noundef zeroext i1 %18(ptr noundef nonnull align 8 dereferenceable(288) %15, ptr noundef %2, i32 noundef 9) #33
  %20 = load ptr, ptr %8, align 8
  %21 = getelementptr i8, ptr %20, i64 384
  %.val = load i8, ptr %21, align 8
  %22 = trunc i8 %.val to i1
  br i1 %22, label %_ZL11canBeHiddenPKN4llvm11GlobalValueERKNS_9MCAsmInfoE.exit, label %.sink.split

_ZL11canBeHiddenPKN4llvm11GlobalValueERKNS_9MCAsmInfoE.exit: ; preds = %13
  %23 = tail call noundef zeroext i1 @_ZNK4llvm11GlobalValue27canBeOmittedFromSymbolTableEv(ptr noundef nonnull align 8 dereferenceable(48) %1) #33
  %spec.select = select i1 %23, i32 27, i32 25
  br label %.sink.split

24:                                               ; preds = %7
  %25 = getelementptr inbounds nuw i8, ptr %9, i64 385
  %26 = load i8, ptr %25, align 1
  %27 = trunc i8 %26 to i1
  br i1 %27, label %28, label %32

28:                                               ; preds = %24
  %29 = tail call noundef ptr @_ZNK4llvm11GlobalValue9getComdatEv(ptr noundef nonnull align 8 dereferenceable(48) %1) #33
  %.not = icmp eq ptr %29, null
  br i1 %.not, label %32, label %30

30:                                               ; preds = %28
  %31 = getelementptr inbounds nuw i8, ptr %0, i64 80
  br label %.sink.split

32:                                               ; preds = %28, %24
  %33 = getelementptr inbounds nuw i8, ptr %0, i64 80
  br label %.sink.split

34:                                               ; preds = %3
  %35 = getelementptr inbounds nuw i8, ptr %0, i64 80
  br label %.sink.split

36:                                               ; preds = %3
  unreachable

.sink.split:                                      ; preds = %_ZL11canBeHiddenPKN4llvm11GlobalValueERKNS_9MCAsmInfoE.exit, %13, %34, %30, %32
  %.sink16 = phi ptr [ %33, %32 ], [ %31, %30 ], [ %35, %34 ], [ %14, %13 ], [ %14, %_ZL11canBeHiddenPKN4llvm11GlobalValueERKNS_9MCAsmInfoE.exit ]
  %.sink11 = phi i32 [ 24, %32 ], [ 9, %30 ], [ 9, %34 ], [ 25, %13 ], [ %spec.select, %_ZL11canBeHiddenPKN4llvm11GlobalValueERKNS_9MCAsmInfoE.exit ]
  %37 = load ptr, ptr %.sink16, align 8
  %38 = load ptr, ptr %37, align 8
  %39 = getelementptr inbounds i8, ptr %38, i64 296
  %40 = load ptr, ptr %39, align 8
  %41 = tail call noundef zeroext i1 %40(ptr noundef nonnull align 8 dereferenceable(288) %37, ptr noundef %2, i32 noundef %.sink11) #33
  br label %42

42:                                               ; preds = %.sink.split, %3, %3
  ret void
}